#include <math.h>
#include <stdio.h>
#include <stdlib.h>
#include <string.h>
#include <iostream>
using namespace std;

void change(int a);						//????change()
int main()
{
	int n;
	cin>>n;								//????????
	cin.get();							//?????
	change(n);
	return 0;
}
void change(int a)
{
	int num;
	cin>>num;							//??????
	a=a-1;								//????????????????1
	if (a>=1)
		change(a);						//???????????????????change()??????????????????
	if (a==0)
		cout<<num;
	else 
		cout<<" "<<num;
}